; Function Attrs: mustprogress uwtable
define void @_ZN32pxrInternal_v0_24__pxrReserved__25UsdImagingDrawModeAdapter11_RemovePrimERKNS_7SdfPathEPNS_20UsdImagingIndexProxyE(ptr nonnull readnone align 8 captures(none) %0, ptr nonnull readnone align 4 captures(none) %1, ptr readnone captures(none) %2) unnamed_addr #0 align 2 {
  %4 = alloca %"class.pxrInternal_v0_24__pxrReserved__::TfCallContext", align 8
  store ptr @.str.3, ptr %4, align 8
  %5 = getelementptr inbounds nuw i8, ptr %4, i64 8
  store ptr @__func__._ZN32pxrInternal_v0_24__pxrReserved__25UsdImagingDrawModeAdapter11_RemovePrimERKNS_7SdfPathEPNS_20UsdImagingIndexProxyE, ptr %5, align 8
  %6 = getelementptr inbounds nuw i8, ptr %4, i64 16
  store i64 391, ptr %6, align 8
  %7 = getelementptr inbounds nuw i8, ptr %4, i64 24
  store ptr @__PRETTY_FUNCTION__._ZN32pxrInternal_v0_24__pxrReserved__25UsdImagingDrawModeAdapter11_RemovePrimERKNS_7SdfPathEPNS_20UsdImagingIndexProxyE, ptr %7, align 8
  %8 = getelementptr inbounds nuw i8, ptr %4, i64 32
  store i8 0, ptr %8, align 8
  call void (ptr, i32, ptr, ...) @_ZN32pxrInternal_v0_24__pxrReserved__18Tf_PostErrorHelperERKNS_13TfCallContextENS_16TfDiagnosticTypeEPKcz(ptr noundef nonnull align 8 dereferenceable(33) %4, i32 noundef 1, ptr noundef nonnull @.str.10)
  ret void
}